; Function Attrs: mustprogress nofree norecurse nosync nounwind willreturn memory(argmem: readwrite) uwtable
define internal void @_ZN7doctest12_GLOBAL__N_115ConsoleReporter11subcase_endEv(ptr noundef nonnull align 8 captures(none) dereferenceable(112) initializes((16, 17)) %0) unnamed_addr #18 align 2 {
  %2 = getelementptr inbounds nuw i8, ptr %0, i64 48
  %3 = load i64, ptr %2, align 8, !tbaa !697
  %4 = add i64 %3, -1
  store i64 %4, ptr %2, align 8, !tbaa !697
  %5 = getelementptr inbounds nuw i8, ptr %0, i64 16
  store i8 0, ptr %5, align 8, !tbaa !695
  ret void
}